target datalayout = "e-m:e-p270:32:32-p271:32:32-p272:64:64-i64:64-i128:128-f80:128-n8:16:32:64-S128"
target triple = "x86_64-pc-linux-gnu"

%struct.lua_State = type { ptr, i8, i8, i8, i8, i16, %union.StkIdRel, ptr, ptr, %union.StkIdRel, %union.StkIdRel, ptr, %union.StkIdRel, ptr, ptr, ptr, %struct.CallInfo, ptr, i64, i32, i32, i32, i32, i32, %struct.anon.2 }
%union.StkIdRel = type { ptr }
%struct.CallInfo = type { %union.StkIdRel, %union.StkIdRel, ptr, ptr, %union.anon, %union.anon.1, i32 }
%union.anon = type { %struct.anon.0 }
%struct.anon.0 = type { ptr, i64, i64 }
%union.anon.1 = type { i32 }
%struct.anon.2 = type { i32, i32 }
%struct.global_State = type { ptr, ptr, i64, i64, i64, i64, %struct.stringtable, %struct.TValue, %struct.TValue, i32, [6 x i8], i8, i8, i8, i8, i8, i8, ptr, ptr, ptr, ptr, ptr, ptr, ptr, ptr, ptr, ptr, ptr, ptr, ptr, ptr, ptr, ptr, ptr, ptr, ptr, ptr, ptr, [25 x ptr], [9 x ptr], [53 x [2 x ptr]], ptr, ptr }
%struct.stringtable = type { ptr, i32, i32 }
%struct.TValue = type { %union.Value, i8 }
%union.Value = type { ptr }

; Function Attrs: nounwind uwtable
define internal void @callallpendingfinalizers(ptr noundef %0) #0 {
  %2 = alloca ptr, align 8
  %3 = alloca ptr, align 8
  store ptr %0, ptr %2, align 8, !tbaa !4
  call void @llvm.lifetime.start.p0(i64 8, ptr %3) #6
  %4 = load ptr, ptr %2, align 8, !tbaa !4
  %5 = getelementptr inbounds nuw %struct.lua_State, ptr %4, i32 0, i32 7
  %6 = load ptr, ptr %5, align 8, !tbaa !11
  store ptr %6, ptr %3, align 8, !tbaa !22
  br label %7

7:                                                ; preds = %12, %1
  %8 = load ptr, ptr %3, align 8, !tbaa !22
  %9 = getelementptr inbounds nuw %struct.global_State, ptr %8, i32 0, i32 25
  %10 = load ptr, ptr %9, align 8, !tbaa !74
  %11 = icmp ne ptr %10, null
  br i1 %11, label %12, label %14

12:                                               ; preds = %7
  %13 = load ptr, ptr %2, align 8, !tbaa !4
  call void @GCTM(ptr noundef %13)
  br label %7

14:                                               ; preds = %7
  call void @llvm.lifetime.end.p0(i64 8, ptr %3) #6
  ret void
}

; Function Attrs: nounwind uwtable
define internal void @checkSizes(ptr noundef %0, ptr noundef %1) #0 {
  %3 = alloca ptr, align 8
  %4 = alloca ptr, align 8
  store ptr %0, ptr %3, align 8, !tbaa !4
  store ptr %1, ptr %4, align 8, !tbaa !22
  %5 = load ptr, ptr %4, align 8, !tbaa !22
  %6 = getelementptr inbounds nuw %struct.global_State, ptr %5, i32 0, i32 16
  %7 = load i8, ptr %6, align 1, !tbaa !77
  %8 = icmp ne i8 %7, 0
  br i1 %8, label %28, label %9

9:                                                ; preds = %2
  %10 = load ptr, ptr %4, align 8, !tbaa !22
  %11 = getelementptr inbounds nuw %struct.global_State, ptr %10, i32 0, i32 6
  %12 = getelementptr inbounds nuw %struct.stringtable, ptr %11, i32 0, i32 1
  %13 = load i32, ptr %12, align 8, !tbaa !139
  %14 = load ptr, ptr %4, align 8, !tbaa !22
  %15 = getelementptr inbounds nuw %struct.global_State, ptr %14, i32 0, i32 6
  %16 = getelementptr inbounds nuw %struct.stringtable, ptr %15, i32 0, i32 2
  %17 = load i32, ptr %16, align 4, !tbaa !140
  %18 = sdiv i32 %17, 4
  %19 = icmp slt i32 %13, %18
  br i1 %19, label %20, label %27

20:                                               ; preds = %9
  %21 = load ptr, ptr %3, align 8, !tbaa !4
  %22 = load ptr, ptr %4, align 8, !tbaa !22
  %23 = getelementptr inbounds nuw %struct.global_State, ptr %22, i32 0, i32 6
  %24 = getelementptr inbounds nuw %struct.stringtable, ptr %23, i32 0, i32 2
  %25 = load i32, ptr %24, align 4, !tbaa !140
  %26 = sdiv i32 %25, 2
  call void @luaS_resize(ptr noundef %21, i32 noundef %26)
  br label %27

27:                                               ; preds = %20, %9
  br label %28

28:                                               ; preds = %27, %2
  ret void
}

; Function Attrs: nounwind uwtable
define internal void @correctgraylists(ptr noundef %0) #0 {
  %2 = alloca ptr, align 8
  %3 = alloca ptr, align 8
  store ptr %0, ptr %2, align 8, !tbaa !22
  call void @llvm.lifetime.start.p0(i64 8, ptr %3) #6
  %4 = load ptr, ptr %2, align 8, !tbaa !22
  %5 = getelementptr inbounds nuw %struct.global_State, ptr %4, i32 0, i32 21
  %6 = call ptr @correctgraylist(ptr noundef %5)
  store ptr %6, ptr %3, align 8, !tbaa !52
  %7 = load ptr, ptr %2, align 8, !tbaa !22
  %8 = getelementptr inbounds nuw %struct.global_State, ptr %7, i32 0, i32 22
  %9 = load ptr, ptr %8, align 8, !tbaa !97
  %10 = load ptr, ptr %3, align 8, !tbaa !52
  store ptr %9, ptr %10, align 8, !tbaa !9
  %11 = load ptr, ptr %2, align 8, !tbaa !22
  %12 = getelementptr inbounds nuw %struct.global_State, ptr %11, i32 0, i32 22
  store ptr null, ptr %12, align 8, !tbaa !97
  %13 = load ptr, ptr %3, align 8, !tbaa !52
  %14 = call ptr @correctgraylist(ptr noundef %13)
  store ptr %14, ptr %3, align 8, !tbaa !52
  %15 = load ptr, ptr %2, align 8, !tbaa !22
  %16 = getelementptr inbounds nuw %struct.global_State, ptr %15, i32 0, i32 24
  %17 = load ptr, ptr %16, align 8, !tbaa !98
  %18 = load ptr, ptr %3, align 8, !tbaa !52
  store ptr %17, ptr %18, align 8, !tbaa !9
  %19 = load ptr, ptr %2, align 8, !tbaa !22
  %20 = getelementptr inbounds nuw %struct.global_State, ptr %19, i32 0, i32 24
  store ptr null, ptr %20, align 8, !tbaa !98
  %21 = load ptr, ptr %3, align 8, !tbaa !52
  %22 = call ptr @correctgraylist(ptr noundef %21)
  store ptr %22, ptr %3, align 8, !tbaa !52
  %23 = load ptr, ptr %2, align 8, !tbaa !22
  %24 = getelementptr inbounds nuw %struct.global_State, ptr %23, i32 0, i32 23
  %25 = load ptr, ptr %24, align 8, !tbaa !99
  %26 = load ptr, ptr %3, align 8, !tbaa !52
  store ptr %25, ptr %26, align 8, !tbaa !9
  %27 = load ptr, ptr %2, align 8, !tbaa !22
  %28 = getelementptr inbounds nuw %struct.global_State, ptr %27, i32 0, i32 23
  store ptr null, ptr %28, align 8, !tbaa !99
  %29 = load ptr, ptr %3, align 8, !tbaa !52
  %30 = call ptr @correctgraylist(ptr noundef %29)
  call void @llvm.lifetime.end.p0(i64 8, ptr %3) #6
  ret void
}

; Function Attrs: nounwind uwtable
define internal void @finishgencycle(ptr noundef %0, ptr noundef %1) #0 {
  %3 = alloca ptr, align 8
  %4 = alloca ptr, align 8
  store ptr %0, ptr %3, align 8, !tbaa !4
  store ptr %1, ptr %4, align 8, !tbaa !22
  %5 = load ptr, ptr %4, align 8, !tbaa !22
  call void @correctgraylists(ptr noundef %5)
  %6 = load ptr, ptr %3, align 8, !tbaa !4
  %7 = load ptr, ptr %4, align 8, !tbaa !22
  call void @checkSizes(ptr noundef %6, ptr noundef %7)
  %8 = load ptr, ptr %4, align 8, !tbaa !22
  %9 = getelementptr inbounds nuw %struct.global_State, ptr %8, i32 0, i32 12
  store i8 0, ptr %9, align 1, !tbaa !23
  %10 = load ptr, ptr %4, align 8, !tbaa !22
  %11 = getelementptr inbounds nuw %struct.global_State, ptr %10, i32 0, i32 16
  %12 = load i8, ptr %11, align 1, !tbaa !77
  %13 = icmp ne i8 %12, 0
  br i1 %13, label %16, label %14

14:                                               ; preds = %2
  %15 = load ptr, ptr %3, align 8, !tbaa !4
  call void @callallpendingfinalizers(ptr noundef %15)
  br label %16

16:                                               ; preds = %14, %2
  ret void
}