; Function Attrs: nounwind uwtable
define internal fastcc void @finishgencycle(ptr noundef %0, ptr noundef captures(none) %1) unnamed_addr #0 {
  %3 = getelementptr inbounds nuw i8, ptr %1, i64 144
  %4 = tail call fastcc ptr @correctgraylist(ptr noundef nonnull %3)
  %5 = getelementptr inbounds nuw i8, ptr %1, i64 152
  %6 = load ptr, ptr %5, align 8, !tbaa !93
  store ptr %6, ptr %4, align 8, !tbaa !46
  store ptr null, ptr %5, align 8, !tbaa !93
  %7 = tail call fastcc ptr @correctgraylist(ptr noundef nonnull %4)
  %8 = getelementptr inbounds nuw i8, ptr %1, i64 168
  %9 = load ptr, ptr %8, align 8, !tbaa !94
  store ptr %9, ptr %7, align 8, !tbaa !46
  store ptr null, ptr %8, align 8, !tbaa !94
  %10 = tail call fastcc ptr @correctgraylist(ptr noundef nonnull %7)
  %11 = getelementptr inbounds nuw i8, ptr %1, i64 160
  %12 = load ptr, ptr %11, align 8, !tbaa !91
  store ptr %12, ptr %10, align 8, !tbaa !46
  store ptr null, ptr %11, align 8, !tbaa !91
  %13 = tail call fastcc ptr @correctgraylist(ptr noundef nonnull %10)
  %14 = getelementptr inbounds nuw i8, ptr %1, i64 111
  %15 = load i8, ptr %14, align 1, !tbaa !67
  %.not.i = icmp eq i8 %15, 0
  br i1 %.not.i, label %17, label %checkSizes.exit.thread

checkSizes.exit.thread:                           ; preds = %2
  %16 = getelementptr inbounds nuw i8, ptr %1, i64 107
  store i8 0, ptr %16, align 1, !tbaa !20
  br label %callallpendingfinalizers.exit

17:                                               ; preds = %2
  %18 = getelementptr inbounds nuw i8, ptr %1, i64 56
  %19 = load i32, ptr %18, align 8, !tbaa !68
  %20 = getelementptr inbounds nuw i8, ptr %1, i64 60
  %21 = load i32, ptr %20, align 4, !tbaa !69
  %22 = sdiv i32 %21, 4
  %23 = icmp slt i32 %19, %22
  br i1 %23, label %checkSizes.exit, label %checkSizes.exit.thread9

checkSizes.exit.thread9:                          ; preds = %17
  %24 = getelementptr inbounds nuw i8, ptr %1, i64 107
  store i8 0, ptr %24, align 1, !tbaa !20
  br label %28

checkSizes.exit:                                  ; preds = %17
  %25 = sdiv i32 %21, 2
  tail call void @luaS_resize(ptr noundef %0, i32 noundef %25) #8
  %.pr.pre = load i8, ptr %14, align 1, !tbaa !67
  %26 = icmp eq i8 %.pr.pre, 0
  %27 = getelementptr inbounds nuw i8, ptr %1, i64 107
  store i8 0, ptr %27, align 1, !tbaa !20
  br i1 %26, label %28, label %callallpendingfinalizers.exit

28:                                               ; preds = %checkSizes.exit.thread9, %checkSizes.exit
  %29 = getelementptr inbounds nuw i8, ptr %0, i64 24
  %30 = load ptr, ptr %29, align 8, !tbaa !4
  %31 = getelementptr inbounds nuw i8, ptr %30, i64 176
  %32 = load ptr, ptr %31, align 8, !tbaa !58
  %.not3.i = icmp eq ptr %32, null
  br i1 %.not3.i, label %callallpendingfinalizers.exit, label %.lr.ph.i

.lr.ph.i:                                         ; preds = %28, %.lr.ph.i
  tail call fastcc void @GCTM(ptr noundef %0)
  %33 = load ptr, ptr %31, align 8, !tbaa !58
  %.not.i6 = icmp eq ptr %33, null
  br i1 %.not.i6, label %callallpendingfinalizers.exit, label %.lr.ph.i

callallpendingfinalizers.exit:                    ; preds = %.lr.ph.i, %28, %checkSizes.exit.thread, %checkSizes.exit
  ret void
}